; Function Attrs: mustprogress nounwind uwtable
define dso_local { i32, ptr } @_ZN4llvm3sys2fs14setPermissionsERKNS_5TwineENS1_5permsE(ptr noundef nonnull align 8 dereferenceable(34) %0, i32 noundef %1) local_unnamed_addr #0 {
  %3 = alloca %"class.llvm::SmallString.10", align 8
  %4 = getelementptr inbounds i8, ptr %3, i64 24
  call void @_ZN4llvm15SmallVectorBaseImEC2EPvm(ptr noundef nonnull align 8 dereferenceable(24) %3, ptr noundef nonnull %4, i64 noundef 128) #30
  %5 = call { ptr, i64 } @_ZNK4llvm5Twine25toNullTerminatedStringRefERNS_15SmallVectorImplIcEE(ptr noundef nonnull align 8 dereferenceable(34) %0, ptr noundef nonnull align 8 dereferenceable(24) %3) #30
  %6 = extractvalue { ptr, i64 } %5, 0
  %7 = call i32 @chmod(ptr noundef %6, i32 noundef %1) #30
  %.not = icmp eq i32 %7, 0
  br i1 %.not, label %12, label %8

8:                                                ; preds = %2
  %9 = tail call ptr @__errno_location() #33
  %10 = load i32, ptr %9, align 4
  %11 = tail call noundef nonnull align 8 dereferenceable(8) ptr @_ZNSt3_V216generic_categoryEv() #33
  br label %14

12:                                               ; preds = %2
  %13 = tail call noundef nonnull align 8 dereferenceable(8) ptr @_ZNSt3_V215system_categoryEv() #33
  br label %14

14:                                               ; preds = %12, %8
  %.sroa.01.0 = phi i32 [ 0, %12 ], [ %10, %8 ]
  %.sroa.3.0 = phi ptr [ %13, %12 ], [ %11, %8 ]
  %15 = call noundef i64 @_ZNK4llvm15SmallVectorBaseImE4sizeEv(ptr noundef nonnull align 8 dereferenceable(24) %3) #30
  %16 = load ptr, ptr %3, align 8
  %17 = icmp eq ptr %16, %4
  br i1 %17, label %_ZN4llvm11SmallStringILj128EED2Ev.exit, label %18

18:                                               ; preds = %14
  call void @free(ptr noundef %16) #30
  br label %_ZN4llvm11SmallStringILj128EED2Ev.exit

_ZN4llvm11SmallStringILj128EED2Ev.exit:           ; preds = %14, %18
  %.fca.0.insert = insertvalue { i32, ptr } poison, i32 %.sroa.01.0, 0
  %.fca.1.insert = insertvalue { i32, ptr } %.fca.0.insert, ptr %.sroa.3.0, 1
  ret { i32, ptr } %.fca.1.insert
}